; Function Attrs: mustprogress uwtable
define dso_local nonnull ptr @__cxa_vec_new(i64 noundef %0, i64 noundef %1, i64 noundef %2, ptr noundef readonly captures(address_is_null) %3, ptr noundef %4) local_unnamed_addr #0 personality ptr @__gxx_personality_v0 {
  %6 = alloca i64, align 8
  %7 = alloca %"class.__cxxabiv1::(anonymous namespace)::st_cxa_cleanup", align 8
  %8 = tail call { i64, i1 } @llvm.umul.with.overflow.i64(i64 %0, i64 %1)
  %9 = extractvalue { i64, i1 } %8, 1
  br i1 %9, label %10, label %11

10:                                               ; preds = %5
  tail call fastcc void @_ZN10__cxxabiv112_GLOBAL__N_126throw_bad_array_new_lengthEv() #11
  unreachable

11:                                               ; preds = %5
  %12 = extractvalue { i64, i1 } %8, 0
  %13 = tail call { i64, i1 } @llvm.uadd.with.overflow.i64(i64 %12, i64 %2)
  %14 = extractvalue { i64, i1 } %13, 1
  br i1 %14, label %15, label %_ZN10__cxxabiv112_GLOBAL__N_134calculate_allocation_size_or_throwEmmm.exit.i

15:                                               ; preds = %11
  tail call fastcc void @_ZN10__cxxabiv112_GLOBAL__N_126throw_bad_array_new_lengthEv() #11
  unreachable

_ZN10__cxxabiv112_GLOBAL__N_134calculate_allocation_size_or_throwEmmm.exit.i: ; preds = %11
  %16 = extractvalue { i64, i1 } %13, 0
  %17 = tail call noundef ptr @_Znam(i64 noundef %16)
  %.not24.i = icmp eq i64 %2, 0
  br i1 %.not24.i, label %21, label %18

18:                                               ; preds = %_ZN10__cxxabiv112_GLOBAL__N_134calculate_allocation_size_or_throwEmmm.exit.i
  %19 = getelementptr inbounds nuw i8, ptr %17, i64 %2
  %20 = getelementptr inbounds i8, ptr %19, i64 -8
  store i64 %0, ptr %20, align 8, !tbaa !4
  br label %21

21:                                               ; preds = %18, %_ZN10__cxxabiv112_GLOBAL__N_134calculate_allocation_size_or_throwEmmm.exit.i
  %.1.i = phi ptr [ %19, %18 ], [ %17, %_ZN10__cxxabiv112_GLOBAL__N_134calculate_allocation_size_or_throwEmmm.exit.i ]
  %.not.i.i = icmp eq ptr %3, null
  br i1 %.not.i.i, label %__cxa_vec_new2.exit, label %22

22:                                               ; preds = %21
  call void @llvm.lifetime.start.p0(i64 8, ptr nonnull %6) #12
  call void @llvm.lifetime.start.p0(i64 40, ptr nonnull %7) #12
  store ptr %.1.i, ptr %7, align 8, !tbaa !8
  %23 = getelementptr inbounds nuw i8, ptr %7, i64 8
  store ptr %6, ptr %23, align 8, !tbaa !13
  %24 = getelementptr inbounds nuw i8, ptr %7, i64 16
  store i64 %1, ptr %24, align 8, !tbaa !14
  %25 = getelementptr inbounds nuw i8, ptr %7, i64 24
  store ptr %4, ptr %25, align 8, !tbaa !15
  %26 = getelementptr inbounds nuw i8, ptr %7, i64 32
  store i8 1, ptr %26, align 8, !tbaa !16
  store i64 0, ptr %6, align 8, !tbaa !4
  %.not13.i.i = icmp eq i64 %0, 0
  br i1 %.not13.i.i, label %_ZN10__cxxabiv112_GLOBAL__N_114st_cxa_cleanupD2Ev.exit.i.i, label %.lr.ph.i.i

.lr.ph.i.i:                                       ; preds = %22, %27
  %.012.i.i = phi ptr [ %30, %27 ], [ %.1.i, %22 ]
  invoke void %3(ptr noundef %.012.i.i)
          to label %27 unwind label %.body.i

27:                                               ; preds = %.lr.ph.i.i
  %28 = load i64, ptr %6, align 8, !tbaa !4
  %29 = add i64 %28, 1
  store i64 %29, ptr %6, align 8, !tbaa !4
  %30 = getelementptr inbounds nuw i8, ptr %.012.i.i, i64 %1
  %31 = icmp ult i64 %29, %0
  br i1 %31, label %.lr.ph.i.i, label %_ZN10__cxxabiv112_GLOBAL__N_114st_cxa_cleanupD2Ev.exit.i.i, !llvm.loop !17

.body.i:                                          ; preds = %.lr.ph.i.i
  %32 = landingpad { ptr, i32 }
          cleanup
  call fastcc void @_ZN10__cxxabiv112_GLOBAL__N_114st_cxa_cleanupD2Ev(ptr noundef nonnull align 8 dereferenceable(33) %7) #12
  call void @llvm.lifetime.end.p0(i64 40, ptr nonnull %7) #12
  call void @llvm.lifetime.end.p0(i64 8, ptr nonnull %6) #12
  call void @_ZdaPv(ptr noundef nonnull %17)
  resume { ptr, i32 } %32

_ZN10__cxxabiv112_GLOBAL__N_114st_cxa_cleanupD2Ev.exit.i.i: ; preds = %27, %22
  call void @llvm.lifetime.end.p0(i64 40, ptr nonnull %7) #12
  call void @llvm.lifetime.end.p0(i64 8, ptr nonnull %6) #12
  br label %__cxa_vec_new2.exit

__cxa_vec_new2.exit:                              ; preds = %21, %_ZN10__cxxabiv112_GLOBAL__N_114st_cxa_cleanupD2Ev.exit.i.i
  ret ptr %.1.i
}